; ModuleID = '7/625.c'
source_filename = "7/625.c"
target datalayout = "e-m:e-p270:32:32-p271:32:32-p272:64:64-i64:64-f80:128-n8:16:32:64-S128"
target triple = "x86_64-pc-linux-gnu"

@a = common dso_local global [2000 x i8] zeroinitializer, align 16
@sub = common dso_local global [2000 x i8] zeroinitializer, align 16
@b = common dso_local global [2000 x i32] zeroinitializer, align 16
@.str = private unnamed_addr constant [3 x i8] c"%s\00", align 1
@.str.1 = private unnamed_addr constant [3 x i8] c"%c\00", align 1

; Function Attrs: noinline nounwind uwtable
define dso_local i32 @main() #0 {
  %1 = alloca i32, align 4
  %2 = alloca i32, align 4
  %3 = alloca i32, align 4
  %4 = alloca i32, align 4
  %5 = alloca i32, align 4
  %6 = alloca i32, align 4
  %7 = alloca i32, align 4
  %8 = alloca i32, align 4
  %9 = alloca [300 x i8], align 16
  %10 = alloca i32, align 4
  store i32 0, i32* %1, align 4
  %11 = call i32 (i8*, ...) bitcast (i32 (...)* @gets to i32 (i8*, ...)*)(i8* getelementptr inbounds ([2000 x i8], [2000 x i8]* @a, i64 0, i64 0))
  %12 = call i32 (i8*, ...) bitcast (i32 (...)* @gets to i32 (i8*, ...)*)(i8* getelementptr inbounds ([2000 x i8], [2000 x i8]* @sub, i64 0, i64 0))
  store i32 0, i32* %2, align 4
  store i32 0, i32* %3, align 4
  %13 = call i64 @strlen(i8* getelementptr inbounds ([2000 x i8], [2000 x i8]* @a, i64 0, i64 0)) #3
  %14 = trunc i64 %13 to i32
  store i32 %14, i32* %4, align 4
  %15 = call i64 @strlen(i8* getelementptr inbounds ([2000 x i8], [2000 x i8]* @sub, i64 0, i64 0)) #3
  %16 = trunc i64 %15 to i32
  store i32 %16, i32* %5, align 4
  br label %17

17:                                               ; preds = %50, %0
  %18 = load i32, i32* %2, align 4
  %19 = load i32, i32* %4, align 4
  %20 = icmp slt i32 %18, %19
  br i1 %20, label %21, label %53

21:                                               ; preds = %17
  store i32 0, i32* %3, align 4
  br label %22

22:                                               ; preds = %47, %21
  %23 = load i32, i32* %3, align 4
  %24 = load i32, i32* %5, align 4
  %25 = icmp slt i32 %23, %24
  br i1 %25, label %26, label %50

26:                                               ; preds = %22
  %27 = load i32, i32* %2, align 4
  %28 = load i32, i32* %3, align 4
  %29 = add nsw i32 %27, %28
  %30 = sext i32 %29 to i64
  %31 = getelementptr inbounds [2000 x i8], [2000 x i8]* @a, i64 0, i64 %30
  %32 = load i8, i8* %31, align 1
  %33 = sext i8 %32 to i32
  %34 = load i32, i32* %3, align 4
  %35 = sext i32 %34 to i64
  %36 = getelementptr inbounds [2000 x i8], [2000 x i8]* @sub, i64 0, i64 %35
  %37 = load i8, i8* %36, align 1
  %38 = sext i8 %37 to i32
  %39 = icmp eq i32 %33, %38
  br i1 %39, label %40, label %46

40:                                               ; preds = %26
  %41 = load i32, i32* %2, align 4
  %42 = sext i32 %41 to i64
  %43 = getelementptr inbounds [2000 x i32], [2000 x i32]* @b, i64 0, i64 %42
  %44 = load i32, i32* %43, align 4
  %45 = add nsw i32 %44, 1
  store i32 %45, i32* %43, align 4
  br label %46

46:                                               ; preds = %40, %26
  br label %47

47:                                               ; preds = %46
  %48 = load i32, i32* %3, align 4
  %49 = add nsw i32 %48, 1
  store i32 %49, i32* %3, align 4
  br label %22

50:                                               ; preds = %22
  %51 = load i32, i32* %2, align 4
  %52 = add nsw i32 %51, 1
  store i32 %52, i32* %2, align 4
  br label %17

53:                                               ; preds = %17
  store i32 0, i32* %6, align 4
  store i32 0, i32* %7, align 4
  store i32 999, i32* %8, align 4
  store i32 0, i32* %6, align 4
  br label %54

54:                                               ; preds = %69, %53
  %55 = load i32, i32* %6, align 4
  %56 = icmp slt i32 %55, 2000
  br i1 %56, label %57, label %72

57:                                               ; preds = %54
  %58 = load i32, i32* %6, align 4
  %59 = sext i32 %58 to i64
  %60 = getelementptr inbounds [2000 x i32], [2000 x i32]* @b, i64 0, i64 %59
  %61 = load i32, i32* %60, align 4
  %62 = load i32, i32* %5, align 4
  %63 = icmp eq i32 %61, %62
  br i1 %63, label %64, label %68

64:                                               ; preds = %57
  %65 = load i32, i32* %6, align 4
  store i32 %65, i32* %8, align 4
  %66 = load i32, i32* %7, align 4
  %67 = add nsw i32 %66, 1
  store i32 %67, i32* %7, align 4
  br label %72

68:                                               ; preds = %57
  br label %69

69:                                               ; preds = %68
  %70 = load i32, i32* %6, align 4
  %71 = add nsw i32 %70, 1
  store i32 %71, i32* %6, align 4
  br label %54

72:                                               ; preds = %64, %54
  %73 = getelementptr inbounds [300 x i8], [300 x i8]* %9, i64 0, i64 0
  %74 = call i32 (i8*, ...) bitcast (i32 (...)* @gets to i32 (i8*, ...)*)(i8* %73)
  store i32 0, i32* %10, align 4
  %75 = load i32, i32* %7, align 4
  %76 = icmp ne i32 %75, 0
  br i1 %76, label %77, label %107

77:                                               ; preds = %72
  br label %78

78:                                               ; preds = %103, %77
  %79 = load i32, i32* %10, align 4
  %80 = load i32, i32* %4, align 4
  %81 = icmp slt i32 %79, %80
  br i1 %81, label %82, label %106

82:                                               ; preds = %78
  %83 = load i32, i32* %10, align 4
  %84 = load i32, i32* %8, align 4
  %85 = icmp eq i32 %83, %84
  br i1 %85, label %86, label %92

86:                                               ; preds = %82
  %87 = getelementptr inbounds [300 x i8], [300 x i8]* %9, i64 0, i64 0
  %88 = call i32 (i8*, ...) @printf(i8* getelementptr inbounds ([3 x i8], [3 x i8]* @.str, i64 0, i64 0), i8* %87)
  %89 = load i32, i32* %5, align 4
  %90 = load i32, i32* %10, align 4
  %91 = add nsw i32 %90, %89
  store i32 %91, i32* %10, align 4
  br label %92

92:                                               ; preds = %86, %82
  %93 = load i32, i32* %10, align 4
  %94 = load i32, i32* %4, align 4
  %95 = icmp ne i32 %93, %94
  br i1 %95, label %96, label %103

96:                                               ; preds = %92
  %97 = load i32, i32* %10, align 4
  %98 = sext i32 %97 to i64
  %99 = getelementptr inbounds [2000 x i8], [2000 x i8]* @a, i64 0, i64 %98
  %100 = load i8, i8* %99, align 1
  %101 = sext i8 %100 to i32
  %102 = call i32 (i8*, ...) @printf(i8* getelementptr inbounds ([3 x i8], [3 x i8]* @.str.1, i64 0, i64 0), i32 %101)
  br label %103

103:                                              ; preds = %96, %92
  %104 = load i32, i32* %10, align 4
  %105 = add nsw i32 %104, 1
  store i32 %105, i32* %10, align 4
  br label %78

106:                                              ; preds = %78
  br label %113

107:                                              ; preds = %72
  %108 = load i32, i32* %7, align 4
  %109 = icmp eq i32 %108, 0
  br i1 %109, label %110, label %112

110:                                              ; preds = %107
  %111 = call i32 @puts(i8* getelementptr inbounds ([2000 x i8], [2000 x i8]* @a, i64 0, i64 0))
  br label %112

112:                                              ; preds = %110, %107
  br label %113

113:                                              ; preds = %112, %106
  ret i32 0
}

declare dso_local i32 @gets(...) #1

; Function Attrs: nounwind readonly
declare dso_local i64 @strlen(i8*) #2

declare dso_local i32 @printf(i8*, ...) #1

declare dso_local i32 @puts(i8*) #1


!llvm.module.flags = !{!0}
!llvm.ident = !{!1}

!0 = !{i32 1, !"wchar_size", i32 4}
!1 = !{!"clang version 10.0.0-4ubuntu1 "}
